Certificate:
    Data:
        Version: 3 (0x2)
        Serial Number: 1 (0x1)
    Signature Algorithm: sha256WithRSAEncryption
        Issuer: CN=Jonge
        Validity
            Not Before: Jun  7 14:30:31 2019 GMT
            Not After : Jun  4 14:30:31 2029 GMT
        Subject: CN=openvpn_server
        Subject Public Key Info:
            Public Key Algorithm: rsaEncryption
                Public-Key: (2048 bit)
                Modulus:
                    00:ce:2a:f5:bf:d3:04:08:a6:14:8b:b2:6f:70:48:
                    41:64:f2:43:4f:57:06:7b:82:aa:b4:a2:e8:f0:97:
                    f2:3f:22:72:d6:bf:0b:d1:e8:be:5a:8c:e2:21:1e:
                    9b:03:6d:83:6b:e5:46:06:29:39:5a:99:1d:c6:42:
                    bf:a2:fd:12:c6:86:1b:5a:32:c9:78:92:5a:c9:c0:
                    f2:9e:15:69:56:35:61:bc:4e:8b:20:b6:03:b5:4f:
                    5c:2e:64:25:cb:5b:58:e5:92:2a:9f:83:9b:31:ae:
                    ec:b6:d7:cc:17:cb:c8:f0:43:bd:9d:0c:ab:90:64:
                    39:c5:44:a0:52:21:a9:ef:38:69:33:43:dd:b0:30:
                    94:66:9b:53:73:49:fe:9b:5d:2a:48:a5:20:2e:a3:
                    15:21:7c:e7:b8:5a:38:2f:9f:84:74:89:33:20:58:
                    c8:56:b1:06:c3:34:b3:7c:47:dc:05:a1:2e:76:b4:
                    0b:2c:a2:25:26:2f:94:42:ca:21:ce:31:6a:f2:88:
                    0f:d7:d2:02:86:6c:96:84:3d:96:67:3b:90:9b:7b:
                    e4:78:f2:b7:cc:58:b5:44:6f:e4:a2:2c:9b:ab:d5:
                    53:58:d0:39:a5:97:d7:21:3d:c7:ee:be:9c:4b:77:
                    3c:fb:ae:f8:1c:fc:a3:33:86:aa:87:ef:2c:58:e2:
                    29:f3
                Exponent: 65537 (0x10001)
        X509v3 extensions:
            X509v3 Basic Constraints: 
                CA:FALSE
            X509v3 Subject Key Identifier: 
                17:85:DF:EA:08:8D:92:40:7B:7C:9D:5A:9E:70:DF:2C:13:C8:45:0B
            X509v3 Authority Key Identifier: 
                keyid:C2:35:CE:39:A1:96:8C:83:7B:CB:30:BB:CF:F9:B4:C8:CC:DE:99:1A
                DirName:/CN=Jonge
                serial:A3:02:89:4F:AF:5B:C1:38

            X509v3 Extended Key Usage: 
                TLS Web Server Authentication
            X509v3 Key Usage: 
                Digital Signature, Key Encipherment
    Signature Algorithm: sha256WithRSAEncryption
         8f:7d:17:38:04:75:e2:ba:19:b8:62:b7:5a:b0:9a:d6:f3:a2:
         c5:76:eb:14:10:bb:8b:26:36:99:94:d8:b6:ec:57:07:c1:94:
         71:b6:07:df:8a:65:4d:23:11:fd:cf:ac:8d:3c:b1:c1:2f:4c:
         f6:74:bc:a7:15:62:a0:f1:7d:3d:c4:76:5b:3d:a0:54:15:6e:
         3e:43:c7:80:d6:34:b3:dd:02:57:7c:ec:fc:7c:0b:a3:f1:30:
         ef:39:b1:2e:f8:93:61:56:0f:08:96:8c:0f:b3:3a:50:43:3c:
         d0:1a:04:e5:df:23:24:79:4c:e5:cb:40:d7:c6:00:20:a2:d4:
         4f:86:5c:e1:35:46:0a:79:b6:ed:58:07:87:ef:92:28:21:8a:
         20:2d:78:30:cb:2a:a5:98:b0:95:e8:21:77:a7:d5:df:65:8a:
         dd:6a:e2:7a:f9:a7:97:a0:ba:49:f4:49:d2:31:1b:12:5f:18:
         78:83:9b:e6:c2:56:e0:47:b2:ed:50:67:86:37:d0:24:8a:74:
         fc:92:a9:63:05:d9:ea:b1:26:cb:09:7f:03:e5:66:8d:5b:25:
         e0:52:7f:14:9a:7d:ba:c4:60:14:d4:24:3f:8c:00:b2:ae:e2:
         fc:a5:a0:58:87:48:1b:c3:7d:45:af:9e:e1:75:23:e9:69:02:
         aa:38:92:60
-----BEGIN CERTIFICATE-----
MIIDNjCCAh6gAwIBAgIBATANBgkqhkiG9w0BAQsFADAQMQ4wDAYDVQQDDAVKb25n
ZTAeFw0xOTA2MDcxNDMwMzFaFw0yOTA2MDQxNDMwMzFaMBkxFzAVBgNVBAMMDm9w
ZW52cG5fc2VydmVyMIIBIjANBgkqhkiG9w0BAQEFAAOCAQ8AMIIBCgKCAQEAzir1
v9MECKYUi7JvcEhBZPJDT1cGe4KqtKLo8JfyPyJy1r8L0ei+WoziIR6bA22Da+VG
Bik5WpkdxkK/ov0SxoYbWjLJeJJaycDynhVpVjVhvE6LILYDtU9cLmQly1tY5ZIq
n4ObMa7sttfMF8vI8EO9nQyrkGQ5xUSgUiGp7zhpM0PdsDCUZptTc0n+m10qSKUg
LqMVIXznuFo4L5+EdIkzIFjIVrEGwzSzfEfcBaEudrQLLKIlJi+UQsohzjFq8ogP
19IChmyWhD2WZzuQm3vkePK3zFi1RG/koiybq9VTWNA5pZfXIT3H7r6cS3c8+674
HPyjM4aqh+8sWOIp8wIDAQABo4GRMIGOMAkGA1UdEwQCMAAwHQYDVR0OBBYEFBeF
3+oIjZJAe3ydWp5w3ywTyEULMEAGA1UdIwQ5MDeAFMI1zjmhloyDe8swu8/5tMjM
3pkaoRSkEjAQMQ4wDAYDVQQDDAVKb25nZYIJAKMCiU+vW8E4MBMGA1UdJQQMMAoG
CCsGAQUFBwMBMAsGA1UdDwQEAwIFoDANBgkqhkiG9w0BAQsFAAOCAQEAj30XOAR1
4roZuGK3WrCa1vOixXbrFBC7iyY2mZTYtuxXB8GUcbYH34plTSMR/c+sjTyxwS9M
9nS8pxVioPF9PcR2Wz2gVBVuPkPHgNY0s90CV3zs/HwLo/Ew7zmxLviTYVYPCJaM
D7M6UEM80BoE5d8jJHlM5ctA18YAIKLUT4Zc4TVGCnm27VgHh++SKCGKIC14MMsq
pZiwleghd6fV32WK3Wrievmnl6C6SfRJ0jEbEl8YeIOb5sJW4Eey7VBnhjfQJIp0
/JKpYwXZ6rEmywl/A+VmjVsl4FJ/FJp9usRgFNQkP4wAsq7i/KWgWIdIG8N9Ra+e
4XUj6WkCqjiSYA==
-----END CERTIFICATE-----
