Certificate:
    Data:
        Version: 3 (0x2)
        Serial Number: 1 (0x1)
    Signature Algorithm: sha256WithRSAEncryption
        Issuer: CN=Jonge
        Validity
            Not Before: Jun  7 07:33:38 2019 GMT
            Not After : Jun  4 07:33:38 2029 GMT
        Subject: CN=openvpn_server
        Subject Public Key Info:
            Public Key Algorithm: rsaEncryption
                Public-Key: (2048 bit)
                Modulus:
                    00:b4:b0:ae:61:c5:e0:27:72:81:09:a7:70:34:d9:
                    3c:4d:07:51:75:8a:a2:74:6e:67:d0:a1:b7:f7:9d:
                    b0:e7:27:9e:d7:58:a2:d0:0f:5c:ff:c7:85:59:cc:
                    d9:78:74:60:19:da:35:af:eb:b7:b7:cc:12:eb:67:
                    f4:8f:6c:60:57:06:4f:d9:b7:a2:33:c8:35:e0:63:
                    5e:b5:57:3b:fd:66:29:28:0e:2a:7b:f8:90:fe:2d:
                    80:33:45:a6:d9:c8:33:67:7e:58:9c:37:fb:9e:b7:
                    4a:94:54:e0:d2:21:ba:ec:38:3b:65:21:9e:02:35:
                    32:06:a2:2a:2b:92:b1:d0:76:a2:98:48:07:61:ae:
                    d9:52:00:79:21:bd:2e:f7:f7:c1:c8:86:f6:e6:6e:
                    c3:3a:eb:a0:36:9a:57:ca:b5:a9:d0:b9:af:ea:4c:
                    09:cc:3a:13:c3:7a:a9:36:64:1d:c6:d8:78:6d:59:
                    db:2b:a8:61:4d:13:b5:e5:88:03:c0:84:5a:01:2a:
                    01:e7:1a:05:25:5a:dd:ab:63:46:28:06:24:ec:f8:
                    d3:5b:92:a0:b8:9a:00:17:07:d8:7a:dc:99:04:14:
                    92:6f:7a:12:0b:6e:39:16:19:f2:c8:ca:a0:11:0b:
                    d2:a0:9c:0a:9e:8c:01:a9:17:92:8a:78:d1:07:ae:
                    52:51
                Exponent: 65537 (0x10001)
        X509v3 extensions:
            X509v3 Basic Constraints: 
                CA:FALSE
            X509v3 Subject Key Identifier: 
                03:32:AE:E3:84:52:DD:C0:DA:8E:9E:C5:80:88:EB:CF:38:81:DC:70
            X509v3 Authority Key Identifier: 
                keyid:3E:97:92:D8:7E:DF:1D:4B:DB:70:A3:4B:F6:FF:51:FC:29:23:E5:7F
                DirName:/CN=Jonge
                serial:83:E4:5A:1A:7C:37:57:94

            X509v3 Extended Key Usage: 
                TLS Web Server Authentication
            X509v3 Key Usage: 
                Digital Signature, Key Encipherment
    Signature Algorithm: sha256WithRSAEncryption
         ad:37:ad:33:b7:bd:b4:b5:5b:df:61:7a:86:7a:e9:29:33:a5:
         ac:26:0c:78:85:00:97:32:78:34:f7:92:a0:cb:e5:69:96:d2:
         14:49:0f:2a:3e:b4:13:18:ae:e6:46:6e:8f:08:03:05:33:c3:
         7c:89:e8:f1:12:43:e6:1a:0e:82:86:35:1d:63:9e:42:e0:a4:
         ea:ad:96:b9:fd:70:25:4b:ca:a7:db:b8:e9:cb:ad:0f:68:3b:
         c1:f8:23:aa:a0:57:3b:52:b4:05:87:fe:f2:67:2c:03:39:b5:
         f4:20:03:e5:c8:92:07:d6:c1:74:4f:3c:f3:3d:76:f3:9b:af:
         8b:92:f2:83:36:09:c1:d1:60:4a:79:4c:54:6c:0d:67:a6:15:
         36:4a:fa:a7:ed:b8:d2:ae:a7:f4:04:a6:91:a0:15:d3:19:45:
         84:91:85:63:db:36:44:2c:92:c1:00:68:f4:27:36:6f:6f:a3:
         ee:79:b1:61:b0:a7:a8:fd:93:96:ca:10:23:a3:26:10:1a:92:
         2e:cd:bc:83:b5:ab:d1:13:c7:15:b1:09:97:4b:4e:f0:6b:ad:
         27:f5:71:3f:43:f2:d3:98:a4:b6:58:67:a5:98:50:d7:37:47:
         e0:6c:ec:18:fe:79:12:32:9a:35:36:ac:7f:60:93:7c:d0:fb:
         a3:e4:f7:b7
-----BEGIN CERTIFICATE-----
MIIDNjCCAh6gAwIBAgIBATANBgkqhkiG9w0BAQsFADAQMQ4wDAYDVQQDDAVKb25n
ZTAeFw0xOTA2MDcwNzMzMzhaFw0yOTA2MDQwNzMzMzhaMBkxFzAVBgNVBAMMDm9w
ZW52cG5fc2VydmVyMIIBIjANBgkqhkiG9w0BAQEFAAOCAQ8AMIIBCgKCAQEAtLCu
YcXgJ3KBCadwNNk8TQdRdYqidG5n0KG3952w5yee11ii0A9c/8eFWczZeHRgGdo1
r+u3t8wS62f0j2xgVwZP2beiM8g14GNetVc7/WYpKA4qe/iQ/i2AM0Wm2cgzZ35Y
nDf7nrdKlFTg0iG67Dg7ZSGeAjUyBqIqK5Kx0HaimEgHYa7ZUgB5Ib0u9/fByIb2
5m7DOuugNppXyrWp0Lmv6kwJzDoTw3qpNmQdxth4bVnbK6hhTRO15YgDwIRaASoB
5xoFJVrdq2NGKAYk7PjTW5KguJoAFwfYetyZBBSSb3oSC245FhnyyMqgEQvSoJwK
nowBqReSinjRB65SUQIDAQABo4GRMIGOMAkGA1UdEwQCMAAwHQYDVR0OBBYEFAMy
ruOEUt3A2o6exYCI6884gdxwMEAGA1UdIwQ5MDeAFD6Xkth+3x1L23CjS/b/Ufwp
I+V/oRSkEjAQMQ4wDAYDVQQDDAVKb25nZYIJAIPkWhp8N1eUMBMGA1UdJQQMMAoG
CCsGAQUFBwMBMAsGA1UdDwQEAwIFoDANBgkqhkiG9w0BAQsFAAOCAQEArTetM7e9
tLVb32F6hnrpKTOlrCYMeIUAlzJ4NPeSoMvlaZbSFEkPKj60Exiu5kZujwgDBTPD
fIno8RJD5hoOgoY1HWOeQuCk6q2Wuf1wJUvKp9u46cutD2g7wfgjqqBXO1K0BYf+
8mcsAzm19CAD5ciSB9bBdE888z1285uvi5LygzYJwdFgSnlMVGwNZ6YVNkr6p+24
0q6n9ASmkaAV0xlFhJGFY9s2RCySwQBo9Cc2b2+j7nmxYbCnqP2TlsoQI6MmEBqS
Ls28g7Wr0RPHFbEJl0tO8GutJ/VxP0Py05iktlhnpZhQ1zdH4GzsGP55EjKaNTas
f2CTfND7o+T3tw==
-----END CERTIFICATE-----
