Certificate:
    Data:
        Version: 3 (0x2)
        Serial Number: 2 (0x2)
    Signature Algorithm: sha256WithRSAEncryption
        Issuer: CN=Jonge
        Validity
            Not Before: Jun  7 07:33:38 2019 GMT
            Not After : Jun  4 07:33:38 2029 GMT
        Subject: CN=openvpn_client1
        Subject Public Key Info:
            Public Key Algorithm: rsaEncryption
                Public-Key: (2048 bit)
                Modulus:
                    00:f3:97:e2:42:ed:24:74:53:97:df:a4:ce:f4:1b:
                    17:bf:c4:bb:97:bb:a5:85:c4:ac:47:3b:86:95:3b:
                    97:55:f4:a1:d5:9c:c2:31:c9:c3:b1:63:ef:48:65:
                    81:27:0b:7f:43:c6:3d:8c:a1:a4:1e:09:42:37:35:
                    1a:9c:94:49:27:b0:a7:ea:31:80:05:fb:fa:d5:1e:
                    e1:a1:0e:8a:4e:85:b3:30:e9:6b:a1:7e:be:ed:f2:
                    f4:66:b5:24:3c:21:c8:15:3e:cb:97:e4:5a:be:d9:
                    46:d7:55:0f:3b:63:b9:6a:ef:6a:4f:26:95:e9:d7:
                    00:59:df:f3:4b:1d:8a:35:89:da:86:70:fa:d6:69:
                    20:2a:a5:f3:ad:07:80:0b:47:ee:27:07:2f:b4:ce:
                    9a:07:5c:64:d6:02:dc:dd:9d:d1:0b:b6:22:3d:e1:
                    ff:21:54:7c:a2:d8:ac:08:a8:23:d2:ec:25:b0:98:
                    e2:f2:6a:70:63:ee:82:31:85:51:a7:1b:1d:e7:bc:
                    8c:cc:3c:ac:ea:60:5f:df:23:c9:cf:63:92:ca:0a:
                    ed:a0:d7:92:ff:24:f9:e4:da:5d:3e:3b:db:9a:05:
                    af:f7:fb:f2:69:b6:23:bb:a5:91:89:d8:0f:0f:1e:
                    ac:c8:46:36:bd:72:e4:21:d0:2f:1f:2d:f1:9a:0d:
                    3b:c7
                Exponent: 65537 (0x10001)
        X509v3 extensions:
            X509v3 Basic Constraints: 
                CA:FALSE
            X509v3 Subject Key Identifier: 
                67:E6:45:24:FF:8A:D9:8F:48:E4:BB:E2:39:AF:42:3A:82:F0:A7:B1
            X509v3 Authority Key Identifier: 
                keyid:3E:97:92:D8:7E:DF:1D:4B:DB:70:A3:4B:F6:FF:51:FC:29:23:E5:7F
                DirName:/CN=Jonge
                serial:83:E4:5A:1A:7C:37:57:94

            X509v3 Extended Key Usage: 
                TLS Web Client Authentication
            X509v3 Key Usage: 
                Digital Signature
    Signature Algorithm: sha256WithRSAEncryption
         5d:e9:2b:ea:cf:48:0d:5f:37:31:2c:cd:9a:fe:40:cb:5c:7b:
         53:86:d3:d0:12:18:b6:de:a5:b2:ed:32:14:be:59:33:bb:c0:
         f0:9a:be:8d:a4:5c:d2:6c:a5:d7:d7:3a:04:98:3a:2b:a6:3a:
         29:a9:68:0c:4e:49:a1:64:2a:b2:e0:b3:87:93:49:71:75:38:
         8f:28:64:52:a1:a0:67:23:72:41:5f:26:54:07:96:05:0d:50:
         ef:28:53:ff:fa:57:f9:ac:37:dc:cb:1c:09:14:5c:00:9c:21:
         4e:9e:40:b5:8f:26:e1:16:fd:60:ca:73:03:eb:32:d0:d0:9c:
         87:a1:63:f6:a9:09:41:77:a6:4a:25:5b:84:ab:de:71:ce:d4:
         d6:f3:c8:f4:a1:31:56:ea:49:fd:de:30:a1:35:ad:c9:26:9d:
         8c:33:1a:f0:97:86:a8:4d:71:f2:5b:16:97:d8:fa:6e:84:af:
         24:f9:66:0c:34:7f:aa:b0:16:78:35:cd:f3:44:22:29:ff:7e:
         cd:21:db:7f:79:45:95:6e:58:e6:dc:5a:da:24:b2:6b:8d:a0:
         89:5e:b0:c5:df:bf:b1:57:7d:f1:87:f5:fe:06:e2:07:eb:bf:
         b9:d7:67:be:1e:e5:23:a0:81:83:72:bb:95:ec:c7:d2:ee:47:
         fa:2e:92:d5
-----BEGIN CERTIFICATE-----
MIIDNzCCAh+gAwIBAgIBAjANBgkqhkiG9w0BAQsFADAQMQ4wDAYDVQQDDAVKb25n
ZTAeFw0xOTA2MDcwNzMzMzhaFw0yOTA2MDQwNzMzMzhaMBoxGDAWBgNVBAMMD29w
ZW52cG5fY2xpZW50MTCCASIwDQYJKoZIhvcNAQEBBQADggEPADCCAQoCggEBAPOX
4kLtJHRTl9+kzvQbF7/Eu5e7pYXErEc7hpU7l1X0odWcwjHJw7Fj70hlgScLf0PG
PYyhpB4JQjc1GpyUSSewp+oxgAX7+tUe4aEOik6FszDpa6F+vu3y9Ga1JDwhyBU+
y5fkWr7ZRtdVDztjuWrvak8mlenXAFnf80sdijWJ2oZw+tZpICql860HgAtH7icH
L7TOmgdcZNYC3N2d0Qu2Ij3h/yFUfKLYrAioI9LsJbCY4vJqcGPugjGFUacbHee8
jMw8rOpgX98jyc9jksoK7aDXkv8k+eTaXT4725oFr/f78mm2I7ulkYnYDw8erMhG
Nr1y5CHQLx8t8ZoNO8cCAwEAAaOBkTCBjjAJBgNVHRMEAjAAMB0GA1UdDgQWBBRn
5kUk/4rZj0jku+I5r0I6gvCnsTBABgNVHSMEOTA3gBQ+l5LYft8dS9two0v2/1H8
KSPlf6EUpBIwEDEOMAwGA1UEAwwFSm9uZ2WCCQCD5FoafDdXlDATBgNVHSUEDDAK
BggrBgEFBQcDAjALBgNVHQ8EBAMCB4AwDQYJKoZIhvcNAQELBQADggEBAF3pK+rP
SA1fNzEszZr+QMtce1OG09ASGLbepbLtMhS+WTO7wPCavo2kXNJspdfXOgSYOium
OimpaAxOSaFkKrLgs4eTSXF1OI8oZFKhoGcjckFfJlQHlgUNUO8oU//6V/msN9zL
HAkUXACcIU6eQLWPJuEW/WDKcwPrMtDQnIehY/apCUF3pkolW4Sr3nHO1NbzyPSh
MVbqSf3eMKE1rckmnYwzGvCXhqhNcfJbFpfY+m6EryT5Zgw0f6qwFng1zfNEIin/
fs0h2395RZVuWObcWtoksmuNoIlesMXfv7FXffGH9f4G4gfrv7nXZ74e5SOggYNy
u5Xsx9LuR/ouktU=
-----END CERTIFICATE-----
