Certificate:
    Data:
        Version: 3 (0x2)
        Serial Number: 2 (0x2)
    Signature Algorithm: sha256WithRSAEncryption
        Issuer: CN=Jonge
        Validity
            Not Before: Jun  7 14:30:31 2019 GMT
            Not After : Jun  4 14:30:31 2029 GMT
        Subject: CN=openvpn_client1
        Subject Public Key Info:
            Public Key Algorithm: rsaEncryption
                Public-Key: (2048 bit)
                Modulus:
                    00:e4:e8:bd:1c:66:0c:94:cb:f3:13:8c:f9:e7:a9:
                    cd:4c:78:5a:da:aa:d3:39:25:e3:a8:99:86:af:32:
                    3f:06:32:d2:86:06:87:2d:20:34:83:6a:1c:37:6c:
                    b3:49:6b:87:8f:ff:18:57:3e:3f:b8:de:5e:fa:66:
                    ce:6c:d1:ce:f0:4a:46:c8:a8:34:0d:15:35:27:85:
                    4a:86:99:a6:3c:54:1e:e2:a9:8d:0e:db:86:98:19:
                    77:c4:d5:03:a6:c4:bf:30:3d:e2:e4:7f:eb:02:46:
                    63:e0:ad:b2:c7:94:8e:97:30:bb:b2:29:80:3b:fb:
                    59:a8:b1:1c:ac:f4:9a:84:30:de:89:47:ed:f4:ef:
                    89:ab:be:c5:57:f7:13:33:48:ec:76:a0:b9:c1:1a:
                    f2:fa:bb:37:77:d7:49:35:4d:3e:d9:ac:09:9e:b3:
                    41:36:2e:18:5b:ef:33:7b:88:cc:45:04:94:e2:e6:
                    d8:e7:cd:ca:12:98:1f:64:6e:ac:04:ff:d4:bf:c4:
                    d5:92:8c:b8:c6:a5:42:91:5a:01:31:30:fb:4e:de:
                    59:33:c3:aa:bd:50:09:ca:32:2b:01:ba:66:c4:ef:
                    9b:02:11:63:15:d9:3f:36:9c:a0:43:e8:c9:72:83:
                    37:c5:7b:92:a7:10:44:a2:97:3d:4d:8e:52:fd:db:
                    25:61
                Exponent: 65537 (0x10001)
        X509v3 extensions:
            X509v3 Basic Constraints: 
                CA:FALSE
            X509v3 Subject Key Identifier: 
                28:41:2A:FF:51:76:C1:74:FB:C3:4A:39:94:F7:95:C2:3C:B6:50:14
            X509v3 Authority Key Identifier: 
                keyid:C2:35:CE:39:A1:96:8C:83:7B:CB:30:BB:CF:F9:B4:C8:CC:DE:99:1A
                DirName:/CN=Jonge
                serial:A3:02:89:4F:AF:5B:C1:38

            X509v3 Extended Key Usage: 
                TLS Web Client Authentication
            X509v3 Key Usage: 
                Digital Signature
    Signature Algorithm: sha256WithRSAEncryption
         a1:51:46:cb:c5:1d:d2:1a:68:fe:69:bb:fe:bf:c5:ee:03:d4:
         ac:62:42:b0:b4:bc:ba:e4:d2:50:a2:df:27:19:fe:ef:af:13:
         70:40:59:dc:50:ad:b9:85:be:8c:c5:29:8b:2d:aa:7c:1a:ee:
         a1:19:69:36:ad:95:f4:f8:dc:c8:b2:5e:da:55:0c:89:5d:1e:
         94:e6:b7:4f:14:1b:3e:97:b5:a5:d5:09:cc:96:eb:2a:3b:fa:
         11:f9:24:f0:df:57:5c:eb:cb:d8:f8:77:e7:b4:47:8f:b1:b6:
         32:2d:97:48:c2:ae:46:ad:f6:a8:fe:48:0b:87:f7:a2:4b:f7:
         70:33:d9:46:bb:7e:cc:1c:b3:03:aa:86:28:58:8d:5a:20:0c:
         91:58:72:0e:73:00:07:a4:23:dc:0d:5f:4f:88:ce:f6:a0:a4:
         34:79:30:87:4b:77:7d:df:cf:49:d3:2a:ba:eb:34:74:20:84:
         2e:e6:9d:a1:9e:ea:5a:67:2c:39:70:f1:8d:5e:92:ea:31:0a:
         a9:74:04:3b:2c:20:e6:9d:b1:42:12:c3:0c:8c:06:1d:e1:30:
         1a:01:9c:8f:cd:80:95:41:7c:1a:c6:cb:5f:32:92:cd:37:7c:
         81:b9:e7:d1:1a:4e:5d:1a:41:e4:89:e6:09:5b:ef:1a:1c:14:
         61:b3:e2:e8
-----BEGIN CERTIFICATE-----
MIIDNzCCAh+gAwIBAgIBAjANBgkqhkiG9w0BAQsFADAQMQ4wDAYDVQQDDAVKb25n
ZTAeFw0xOTA2MDcxNDMwMzFaFw0yOTA2MDQxNDMwMzFaMBoxGDAWBgNVBAMMD29w
ZW52cG5fY2xpZW50MTCCASIwDQYJKoZIhvcNAQEBBQADggEPADCCAQoCggEBAOTo
vRxmDJTL8xOM+eepzUx4Wtqq0zkl46iZhq8yPwYy0oYGhy0gNINqHDdss0lrh4//
GFc+P7jeXvpmzmzRzvBKRsioNA0VNSeFSoaZpjxUHuKpjQ7bhpgZd8TVA6bEvzA9
4uR/6wJGY+CtsseUjpcwu7IpgDv7WaixHKz0moQw3olH7fTviau+xVf3EzNI7Hag
ucEa8vq7N3fXSTVNPtmsCZ6zQTYuGFvvM3uIzEUElOLm2OfNyhKYH2RurAT/1L/E
1ZKMuMalQpFaATEw+07eWTPDqr1QCcoyKwG6ZsTvmwIRYxXZPzacoEPoyXKDN8V7
kqcQRKKXPU2OUv3bJWECAwEAAaOBkTCBjjAJBgNVHRMEAjAAMB0GA1UdDgQWBBQo
QSr/UXbBdPvDSjmU95XCPLZQFDBABgNVHSMEOTA3gBTCNc45oZaMg3vLMLvP+bTI
zN6ZGqEUpBIwEDEOMAwGA1UEAwwFSm9uZ2WCCQCjAolPr1vBODATBgNVHSUEDDAK
BggrBgEFBQcDAjALBgNVHQ8EBAMCB4AwDQYJKoZIhvcNAQELBQADggEBAKFRRsvF
HdIaaP5pu/6/xe4D1KxiQrC0vLrk0lCi3ycZ/u+vE3BAWdxQrbmFvozFKYstqnwa
7qEZaTatlfT43MiyXtpVDIldHpTmt08UGz6XtaXVCcyW6yo7+hH5JPDfV1zry9j4
d+e0R4+xtjItl0jCrkat9qj+SAuH96JL93Az2Ua7fswcswOqhihYjVogDJFYcg5z
AAekI9wNX0+IzvagpDR5MIdLd33fz0nTKrrrNHQghC7mnaGe6lpnLDlw8Y1ekuox
Cql0BDssIOadsUISwwyMBh3hMBoBnI/NgJVBfBrGy18yks03fIG559EaTl0aQeSJ
5glb7xocFGGz4ug=
-----END CERTIFICATE-----
