Certificate:
    Data:
        Version: 3 (0x2)
        Serial Number: 4 (0x4)
    Signature Algorithm: sha256WithRSAEncryption
        Issuer: CN=Jonge
        Validity
            Not Before: Jun  7 07:33:38 2019 GMT
            Not After : Jun  4 07:33:38 2029 GMT
        Subject: CN=openvpn_client3
        Subject Public Key Info:
            Public Key Algorithm: rsaEncryption
                Public-Key: (2048 bit)
                Modulus:
                    00:b4:cf:bc:b3:2a:d2:5a:38:57:43:f7:0f:0a:59:
                    c6:04:d0:97:2c:0e:84:50:e5:b0:28:3a:8e:51:6e:
                    c0:30:5b:23:3d:66:b6:c4:98:32:6b:d6:be:96:e7:
                    e4:9e:5b:25:01:36:cb:36:1e:ca:b4:50:d9:8b:a5:
                    59:20:d5:50:0c:b7:5a:89:b5:c5:99:ee:d8:cc:b2:
                    51:47:68:5f:0e:fb:ce:b5:44:9a:d3:55:21:02:d4:
                    92:cd:63:fd:67:a6:49:5e:5c:f7:2f:d3:7e:5b:9e:
                    45:e5:b2:87:15:b6:26:02:75:01:69:61:2d:6c:69:
                    ae:42:be:7f:df:25:a1:81:c5:2d:e1:60:e8:0e:ac:
                    b8:4b:91:a8:d6:b6:1c:3a:80:65:f9:2f:86:a2:e3:
                    16:83:74:1a:0a:b4:c2:40:29:57:62:88:99:6c:c4:
                    8c:29:be:1b:4b:39:04:d4:1d:ca:e4:49:16:d4:83:
                    3e:2c:07:60:ec:3b:99:85:e5:96:2d:43:fa:59:81:
                    c0:d8:42:5f:ea:dc:65:99:e3:2d:53:b0:b3:e3:fb:
                    e6:88:f7:6b:ad:1f:0f:f9:d6:21:ef:8c:a6:ee:fc:
                    6e:76:c2:6c:09:de:05:a5:fc:83:67:26:fd:d6:3b:
                    a6:90:31:da:27:85:3d:8c:54:ee:4d:d0:0f:7c:c0:
                    94:df
                Exponent: 65537 (0x10001)
        X509v3 extensions:
            X509v3 Basic Constraints: 
                CA:FALSE
            X509v3 Subject Key Identifier: 
                36:4B:F3:8A:C8:75:64:C6:83:35:4B:74:68:B5:53:51:17:44:3D:4B
            X509v3 Authority Key Identifier: 
                keyid:3E:97:92:D8:7E:DF:1D:4B:DB:70:A3:4B:F6:FF:51:FC:29:23:E5:7F
                DirName:/CN=Jonge
                serial:83:E4:5A:1A:7C:37:57:94

            X509v3 Extended Key Usage: 
                TLS Web Client Authentication
            X509v3 Key Usage: 
                Digital Signature
    Signature Algorithm: sha256WithRSAEncryption
         4d:2b:04:a4:2f:c9:58:38:33:87:a8:63:48:73:64:8f:9a:8f:
         7b:c4:32:73:51:4a:74:97:5c:bc:69:1d:46:36:bd:17:a4:a2:
         06:d9:bb:05:ee:4e:62:0a:aa:86:4c:2d:9a:c0:32:db:e5:5d:
         f2:b0:46:c7:8a:a9:20:33:91:3b:b8:fa:67:60:30:5a:a4:6e:
         97:99:38:ff:0b:e1:10:9c:11:a0:9d:b2:ad:e7:1a:3c:c9:93:
         9f:c7:2f:13:fd:c1:d0:7a:10:53:52:ab:a6:51:27:d6:b8:a4:
         80:cc:d2:75:c3:6d:bd:83:60:34:ef:2e:d4:5a:13:1a:6d:f0:
         3f:6f:dd:62:61:06:77:e6:c1:27:5f:d1:d0:cc:d4:09:d7:4c:
         63:71:80:8f:02:4a:89:03:e5:8e:aa:91:f8:a5:aa:81:a0:44:
         d9:81:5e:96:c2:a4:93:ea:e3:3c:3c:b0:16:e0:08:f0:87:1d:
         28:cd:f7:31:e5:69:44:f8:0c:c4:55:b8:22:34:31:c2:7e:d0:
         38:34:a4:42:64:c0:75:08:43:4a:b8:d6:98:2f:1d:24:69:bc:
         c1:4d:61:22:c5:14:ad:45:03:0b:ab:a9:5b:36:06:9d:16:24:
         8a:0b:08:f6:fb:04:7a:3f:1a:8b:b8:82:47:4a:62:31:35:ab:
         ad:6c:7f:e5
-----BEGIN CERTIFICATE-----
MIIDNzCCAh+gAwIBAgIBBDANBgkqhkiG9w0BAQsFADAQMQ4wDAYDVQQDDAVKb25n
ZTAeFw0xOTA2MDcwNzMzMzhaFw0yOTA2MDQwNzMzMzhaMBoxGDAWBgNVBAMMD29w
ZW52cG5fY2xpZW50MzCCASIwDQYJKoZIhvcNAQEBBQADggEPADCCAQoCggEBALTP
vLMq0lo4V0P3DwpZxgTQlywOhFDlsCg6jlFuwDBbIz1mtsSYMmvWvpbn5J5bJQE2
yzYeyrRQ2YulWSDVUAy3Wom1xZnu2MyyUUdoXw77zrVEmtNVIQLUks1j/WemSV5c
9y/TflueReWyhxW2JgJ1AWlhLWxprkK+f98loYHFLeFg6A6suEuRqNa2HDqAZfkv
hqLjFoN0Ggq0wkApV2KImWzEjCm+G0s5BNQdyuRJFtSDPiwHYOw7mYXlli1D+lmB
wNhCX+rcZZnjLVOws+P75oj3a60fD/nWIe+Mpu78bnbCbAneBaX8g2cm/dY7ppAx
2ieFPYxU7k3QD3zAlN8CAwEAAaOBkTCBjjAJBgNVHRMEAjAAMB0GA1UdDgQWBBQ2
S/OKyHVkxoM1S3RotVNRF0Q9SzBABgNVHSMEOTA3gBQ+l5LYft8dS9two0v2/1H8
KSPlf6EUpBIwEDEOMAwGA1UEAwwFSm9uZ2WCCQCD5FoafDdXlDATBgNVHSUEDDAK
BggrBgEFBQcDAjALBgNVHQ8EBAMCB4AwDQYJKoZIhvcNAQELBQADggEBAE0rBKQv
yVg4M4eoY0hzZI+aj3vEMnNRSnSXXLxpHUY2vRekogbZuwXuTmIKqoZMLZrAMtvl
XfKwRseKqSAzkTu4+mdgMFqkbpeZOP8L4RCcEaCdsq3nGjzJk5/HLxP9wdB6EFNS
q6ZRJ9a4pIDM0nXDbb2DYDTvLtRaExpt8D9v3WJhBnfmwSdf0dDM1AnXTGNxgI8C
SokD5Y6qkfilqoGgRNmBXpbCpJPq4zw8sBbgCPCHHSjN9zHlaUT4DMRVuCI0McJ+
0Dg0pEJkwHUIQ0q41pgvHSRpvMFNYSLFFK1FAwurqVs2Bp0WJIoLCPb7BHo/Gou4
gkdKYjE1q61sf+U=
-----END CERTIFICATE-----
