Certificate:
    Data:
        Version: 3 (0x2)
        Serial Number: 4 (0x4)
    Signature Algorithm: sha256WithRSAEncryption
        Issuer: CN=Jonge
        Validity
            Not Before: Jun  7 14:30:31 2019 GMT
            Not After : Jun  4 14:30:31 2029 GMT
        Subject: CN=openvpn_client3
        Subject Public Key Info:
            Public Key Algorithm: rsaEncryption
                Public-Key: (2048 bit)
                Modulus:
                    00:a1:3a:2c:d9:a0:2d:d3:d5:cd:18:17:17:ec:9c:
                    5c:b1:d5:e8:cd:47:72:9f:39:f2:3f:a6:5b:00:b2:
                    b7:ec:1f:e7:9b:d2:7e:b1:8f:c6:f4:69:e7:63:8f:
                    94:64:81:dc:f8:b5:8b:39:3f:29:0c:53:88:07:a0:
                    3f:23:ac:6f:e1:3f:d4:66:ad:0d:f7:40:60:f0:11:
                    9a:a0:ec:fd:d9:06:35:3c:15:45:89:b4:10:b6:d8:
                    4a:da:57:8f:c8:f0:4a:c2:dd:b3:73:8a:76:7c:aa:
                    bf:50:09:a9:7b:9b:c5:d0:38:51:c4:dd:84:13:63:
                    00:0d:20:4d:fb:8c:de:85:03:ff:90:71:ff:00:94:
                    d1:15:27:df:52:87:1d:c5:e3:14:6a:a9:b4:a5:6b:
                    6b:4b:88:26:aa:f8:64:2e:39:4b:99:f5:81:d0:e6:
                    db:70:1a:4c:fd:4b:c8:d3:4c:a7:0b:12:9e:42:b3:
                    56:d4:52:08:4e:c9:b3:ab:be:83:83:ba:09:5f:20:
                    69:4a:37:66:7d:cd:e0:d2:ab:8f:97:73:e9:bd:02:
                    3f:07:23:9d:20:52:a4:07:52:83:8d:5a:78:ac:0e:
                    d0:81:02:33:22:c8:2a:9e:f2:8f:09:cd:4d:b3:4b:
                    90:58:df:b1:4b:c7:26:d1:80:b9:6a:20:43:db:a5:
                    35:d9
                Exponent: 65537 (0x10001)
        X509v3 extensions:
            X509v3 Basic Constraints: 
                CA:FALSE
            X509v3 Subject Key Identifier: 
                2C:57:6F:8C:6F:8D:CC:94:FA:E3:D8:FF:FE:D3:74:E5:EB:C5:4D:76
            X509v3 Authority Key Identifier: 
                keyid:C2:35:CE:39:A1:96:8C:83:7B:CB:30:BB:CF:F9:B4:C8:CC:DE:99:1A
                DirName:/CN=Jonge
                serial:A3:02:89:4F:AF:5B:C1:38

            X509v3 Extended Key Usage: 
                TLS Web Client Authentication
            X509v3 Key Usage: 
                Digital Signature
    Signature Algorithm: sha256WithRSAEncryption
         18:d3:b0:6c:8a:42:ab:8d:73:59:7f:f1:57:46:95:2f:73:c9:
         63:11:5d:d4:dd:05:71:84:88:e2:98:36:24:9a:90:26:b3:0d:
         3b:eb:a6:c2:16:5f:25:88:55:9e:54:8f:9f:4c:e2:95:32:e2:
         97:73:0b:97:c6:ab:54:47:eb:a0:65:0d:d8:5d:c3:b1:69:61:
         d6:cf:15:8b:bc:17:1b:58:bf:88:41:f5:c1:11:b7:c6:a6:fa:
         d7:ab:9d:02:16:56:f3:53:09:15:5c:92:f8:c1:3d:7e:a0:ba:
         2b:c6:99:61:71:75:63:30:21:ed:11:7f:62:72:8c:76:b0:fd:
         c2:6e:ab:ad:5b:1f:0f:70:1f:c6:c7:c9:76:60:38:f4:2c:90:
         9d:11:e4:90:23:34:2b:55:a2:3f:6a:a0:a0:1e:6b:b7:2e:33:
         ad:de:7e:aa:ff:09:25:d9:0f:a1:dd:81:48:e2:97:dc:65:21:
         16:f2:7d:ba:33:01:4a:7a:1b:5c:7d:3e:9c:b8:59:41:f4:11:
         9f:c9:12:93:69:fb:e5:c4:1c:7a:85:12:dc:23:0e:bc:9d:5d:
         38:6e:f6:cd:40:bc:ab:a7:1a:f0:3b:70:f0:35:1f:31:4e:c2:
         d7:d7:55:aa:7c:1e:ca:0e:e0:38:f2:8a:04:35:56:7e:83:e3:
         3c:e8:ac:57
-----BEGIN CERTIFICATE-----
MIIDNzCCAh+gAwIBAgIBBDANBgkqhkiG9w0BAQsFADAQMQ4wDAYDVQQDDAVKb25n
ZTAeFw0xOTA2MDcxNDMwMzFaFw0yOTA2MDQxNDMwMzFaMBoxGDAWBgNVBAMMD29w
ZW52cG5fY2xpZW50MzCCASIwDQYJKoZIhvcNAQEBBQADggEPADCCAQoCggEBAKE6
LNmgLdPVzRgXF+ycXLHV6M1Hcp858j+mWwCyt+wf55vSfrGPxvRp52OPlGSB3Pi1
izk/KQxTiAegPyOsb+E/1GatDfdAYPARmqDs/dkGNTwVRYm0ELbYStpXj8jwSsLd
s3OKdnyqv1AJqXubxdA4UcTdhBNjAA0gTfuM3oUD/5Bx/wCU0RUn31KHHcXjFGqp
tKVra0uIJqr4ZC45S5n1gdDm23AaTP1LyNNMpwsSnkKzVtRSCE7Js6u+g4O6CV8g
aUo3Zn3N4NKrj5dz6b0CPwcjnSBSpAdSg41aeKwO0IECMyLIKp7yjwnNTbNLkFjf
sUvHJtGAuWogQ9ulNdkCAwEAAaOBkTCBjjAJBgNVHRMEAjAAMB0GA1UdDgQWBBQs
V2+Mb43MlPrj2P/+03Tl68VNdjBABgNVHSMEOTA3gBTCNc45oZaMg3vLMLvP+bTI
zN6ZGqEUpBIwEDEOMAwGA1UEAwwFSm9uZ2WCCQCjAolPr1vBODATBgNVHSUEDDAK
BggrBgEFBQcDAjALBgNVHQ8EBAMCB4AwDQYJKoZIhvcNAQELBQADggEBABjTsGyK
QquNc1l/8VdGlS9zyWMRXdTdBXGEiOKYNiSakCazDTvrpsIWXyWIVZ5Uj59M4pUy
4pdzC5fGq1RH66BlDdhdw7FpYdbPFYu8FxtYv4hB9cERt8am+ternQIWVvNTCRVc
kvjBPX6guivGmWFxdWMwIe0Rf2JyjHaw/cJuq61bHw9wH8bHyXZgOPQskJ0R5JAj
NCtVoj9qoKAea7cuM63efqr/CSXZD6HdgUjil9xlIRbyfbozAUp6G1x9Ppy4WUH0
EZ/JEpNp++XEHHqFEtwjDrydXThu9s1AvKunGvA7cPA1HzFOwtfXVap8HsoO4Djy
igQ1Vn6D4zzorFc=
-----END CERTIFICATE-----
