Certificate:
    Data:
        Version: 3 (0x2)
        Serial Number: 3 (0x3)
    Signature Algorithm: sha256WithRSAEncryption
        Issuer: CN=Jonge
        Validity
            Not Before: Jun  7 07:33:38 2019 GMT
            Not After : Jun  4 07:33:38 2029 GMT
        Subject: CN=openvpn_client2
        Subject Public Key Info:
            Public Key Algorithm: rsaEncryption
                Public-Key: (2048 bit)
                Modulus:
                    00:99:8a:ca:f9:a1:57:ab:b4:66:dc:8e:e5:df:b7:
                    ca:38:d3:fa:54:f2:05:af:fb:4b:a3:93:c8:c8:cb:
                    f3:f4:e4:80:cb:9e:30:c4:d3:35:cc:d6:e1:d0:90:
                    d5:01:c1:c0:00:6a:11:67:f9:33:02:80:27:fe:02:
                    f2:a0:a5:ef:42:e9:03:ac:0a:27:58:78:8b:1e:f4:
                    cf:60:9b:55:f2:a8:3d:a2:24:5a:19:c3:94:51:c5:
                    fb:82:8e:81:f0:53:5b:93:52:e0:fd:7b:f5:2d:18:
                    f5:90:69:95:ae:82:16:35:9c:26:89:d3:c6:10:33:
                    fb:be:de:80:5e:90:52:34:fe:c3:6c:b7:04:c9:b8:
                    5b:43:61:f9:df:e3:3c:ee:9a:6c:e3:15:71:6b:52:
                    12:f1:0f:18:e0:60:bf:89:00:b3:22:8e:76:31:95:
                    cb:7c:56:1d:ca:f2:3d:60:eb:af:e7:b3:7b:b5:7a:
                    32:71:d7:3c:aa:a4:0c:03:bb:20:4e:2b:ab:3b:01:
                    78:d7:14:57:9b:77:d4:64:c3:93:e1:7d:d7:08:65:
                    e2:98:46:f3:a6:3e:01:d7:01:af:58:a0:91:f2:5a:
                    77:dd:52:10:69:b1:6a:a9:f0:e8:15:de:5b:38:c5:
                    49:b6:1b:69:ad:73:26:f2:d9:e5:72:72:e0:53:77:
                    b4:15
                Exponent: 65537 (0x10001)
        X509v3 extensions:
            X509v3 Basic Constraints: 
                CA:FALSE
            X509v3 Subject Key Identifier: 
                4B:C2:89:78:9C:33:BB:94:16:AC:D8:6F:6A:AE:BE:0B:86:4D:33:C2
            X509v3 Authority Key Identifier: 
                keyid:3E:97:92:D8:7E:DF:1D:4B:DB:70:A3:4B:F6:FF:51:FC:29:23:E5:7F
                DirName:/CN=Jonge
                serial:83:E4:5A:1A:7C:37:57:94

            X509v3 Extended Key Usage: 
                TLS Web Client Authentication
            X509v3 Key Usage: 
                Digital Signature
    Signature Algorithm: sha256WithRSAEncryption
         6f:3a:82:d9:69:5f:34:d4:1c:5d:8f:58:30:21:1b:06:57:a9:
         5b:ba:05:b1:ba:23:44:bf:68:4d:4f:b2:30:84:d8:a9:93:cd:
         df:e5:e5:98:dd:c4:25:9e:8d:4d:42:3f:0a:97:32:02:ed:37:
         6b:6c:f2:25:02:c8:f4:70:db:49:16:de:ce:1c:94:78:ce:43:
         94:c7:42:14:f4:03:ea:87:ee:83:ec:65:49:ed:f5:34:4a:61:
         75:40:12:5a:b4:82:7b:b6:1e:62:cf:f8:10:c5:2f:d4:1d:7c:
         16:3a:a8:65:16:c8:b7:98:5b:be:ac:32:53:25:ec:64:46:c7:
         72:e1:71:49:1e:cc:aa:83:56:92:b4:d9:ab:9d:b3:8b:11:f9:
         54:1b:90:cd:95:d0:35:d1:8c:c3:89:62:2d:c9:f8:d3:28:6c:
         0c:03:72:1e:de:8a:73:6c:30:73:92:d3:eb:b1:15:4f:8b:88:
         02:94:79:bf:39:30:86:7f:fd:5e:1c:3f:dd:b0:a4:4b:eb:aa:
         58:fb:db:d3:0d:0e:a8:c5:c4:45:b6:41:23:c5:b0:ac:e5:36:
         64:ce:fd:b1:d1:dd:08:27:e1:94:d3:82:9b:56:19:19:df:74:
         7e:d4:32:85:62:46:9b:ff:1f:1e:7d:09:dd:fd:00:fa:4d:67:
         8a:a2:cf:21
-----BEGIN CERTIFICATE-----
MIIDNzCCAh+gAwIBAgIBAzANBgkqhkiG9w0BAQsFADAQMQ4wDAYDVQQDDAVKb25n
ZTAeFw0xOTA2MDcwNzMzMzhaFw0yOTA2MDQwNzMzMzhaMBoxGDAWBgNVBAMMD29w
ZW52cG5fY2xpZW50MjCCASIwDQYJKoZIhvcNAQEBBQADggEPADCCAQoCggEBAJmK
yvmhV6u0ZtyO5d+3yjjT+lTyBa/7S6OTyMjL8/TkgMueMMTTNczW4dCQ1QHBwABq
EWf5MwKAJ/4C8qCl70LpA6wKJ1h4ix70z2CbVfKoPaIkWhnDlFHF+4KOgfBTW5NS
4P179S0Y9ZBpla6CFjWcJonTxhAz+77egF6QUjT+w2y3BMm4W0Nh+d/jPO6abOMV
cWtSEvEPGOBgv4kAsyKOdjGVy3xWHcryPWDrr+eze7V6MnHXPKqkDAO7IE4rqzsB
eNcUV5t31GTDk+F91whl4phG86Y+AdcBr1igkfJad91SEGmxaqnw6BXeWzjFSbYb
aa1zJvLZ5XJy4FN3tBUCAwEAAaOBkTCBjjAJBgNVHRMEAjAAMB0GA1UdDgQWBBRL
wol4nDO7lBas2G9qrr4Lhk0zwjBABgNVHSMEOTA3gBQ+l5LYft8dS9two0v2/1H8
KSPlf6EUpBIwEDEOMAwGA1UEAwwFSm9uZ2WCCQCD5FoafDdXlDATBgNVHSUEDDAK
BggrBgEFBQcDAjALBgNVHQ8EBAMCB4AwDQYJKoZIhvcNAQELBQADggEBAG86gtlp
XzTUHF2PWDAhGwZXqVu6BbG6I0S/aE1PsjCE2KmTzd/l5ZjdxCWejU1CPwqXMgLt
N2ts8iUCyPRw20kW3s4clHjOQ5THQhT0A+qH7oPsZUnt9TRKYXVAElq0gnu2HmLP
+BDFL9QdfBY6qGUWyLeYW76sMlMl7GRGx3LhcUkezKqDVpK02auds4sR+VQbkM2V
0DXRjMOJYi3J+NMobAwDch7einNsMHOS0+uxFU+LiAKUeb85MIZ//V4cP92wpEvr
qlj729MNDqjFxEW2QSPFsKzlNmTO/bHR3Qgn4ZTTgptWGRnfdH7UMoViRpv/Hx59
Cd39APpNZ4qizyE=
-----END CERTIFICATE-----
