Certificate:
    Data:
        Version: 3 (0x2)
        Serial Number: 3 (0x3)
    Signature Algorithm: sha256WithRSAEncryption
        Issuer: CN=Jonge
        Validity
            Not Before: Jun  7 14:30:31 2019 GMT
            Not After : Jun  4 14:30:31 2029 GMT
        Subject: CN=openvpn_client2
        Subject Public Key Info:
            Public Key Algorithm: rsaEncryption
                Public-Key: (2048 bit)
                Modulus:
                    00:f1:48:06:b1:fc:3e:b8:80:dd:08:69:e8:4a:f3:
                    66:b5:ea:e7:9d:28:36:0b:87:6e:29:49:b0:93:44:
                    14:89:8d:88:53:65:d6:ad:67:f8:ba:91:66:f8:7f:
                    7c:eb:e7:c0:b4:03:bb:27:17:49:32:fa:a1:ab:f1:
                    05:94:c3:2a:85:0e:e7:57:b3:6d:70:66:5e:7b:46:
                    b4:21:52:d1:d1:43:86:e0:4e:fa:99:65:d0:06:77:
                    36:38:3e:c4:24:e5:fd:15:bc:ab:89:83:df:3f:fc:
                    91:86:31:b2:89:fe:b4:2d:fd:c4:d7:d8:eb:dd:1f:
                    46:51:f6:85:a5:18:0f:8e:94:a9:0d:0c:c2:07:c5:
                    88:26:ac:73:6c:46:8e:d5:a5:79:e4:57:30:99:98:
                    ef:c4:43:c2:1a:57:bf:43:bf:ff:23:5e:79:60:c9:
                    ea:c6:25:a1:43:3a:fe:7c:12:5f:01:1a:94:0f:b8:
                    0a:eb:43:aa:36:52:46:8d:32:6e:71:dc:c7:a7:13:
                    bf:89:61:87:15:17:1a:ef:ce:cf:04:a5:3f:e6:af:
                    a4:42:d5:1a:a2:6a:6a:30:f5:50:07:ea:59:81:c7:
                    c3:ac:cd:d4:c8:c1:60:a8:ae:3b:db:73:04:d3:f9:
                    a5:fb:bf:6c:3f:ba:2a:ce:a5:06:de:57:31:92:7a:
                    94:1f
                Exponent: 65537 (0x10001)
        X509v3 extensions:
            X509v3 Basic Constraints: 
                CA:FALSE
            X509v3 Subject Key Identifier: 
                33:F5:58:84:BE:44:66:CD:1A:C8:A9:E8:2A:2E:9E:95:08:26:F9:BC
            X509v3 Authority Key Identifier: 
                keyid:C2:35:CE:39:A1:96:8C:83:7B:CB:30:BB:CF:F9:B4:C8:CC:DE:99:1A
                DirName:/CN=Jonge
                serial:A3:02:89:4F:AF:5B:C1:38

            X509v3 Extended Key Usage: 
                TLS Web Client Authentication
            X509v3 Key Usage: 
                Digital Signature
    Signature Algorithm: sha256WithRSAEncryption
         af:84:3e:1b:97:32:e2:13:d0:4e:26:7b:95:39:29:4d:80:30:
         ef:d3:fb:49:1b:cd:8d:15:05:70:79:14:c0:86:6c:80:cf:08:
         4b:b6:be:61:7c:57:00:b5:0f:75:7d:1c:44:93:fd:2b:07:cb:
         e1:50:ba:4d:25:23:70:29:c5:af:54:c2:d6:df:c6:78:f7:47:
         94:99:0c:cb:41:13:02:38:90:3e:4c:13:2b:3f:1d:c3:db:f2:
         be:56:a6:09:9b:e4:32:05:b0:f9:fd:4f:5e:44:45:fb:ca:bd:
         30:42:49:3f:12:ff:24:a7:32:c3:4d:6b:e8:52:83:15:da:f9:
         96:d6:aa:cf:3d:d6:b4:77:dd:31:f5:97:20:c5:bf:49:88:3b:
         f9:2a:5e:04:1c:a9:3c:25:c8:9d:89:89:15:6d:48:35:28:8e:
         c5:22:3e:b4:32:63:73:d6:5d:d7:85:02:51:cd:cb:c2:80:22:
         77:84:5b:48:fe:bd:c2:bf:51:42:85:0b:ef:a0:9f:1c:bb:81:
         35:5f:70:28:6d:ab:36:fa:9e:74:e6:31:8a:ef:30:29:e5:45:
         68:f4:ce:a3:9b:2a:13:3c:e1:13:f1:f9:9d:d0:d7:ec:3a:12:
         25:3c:fa:14:d3:d3:21:41:dd:46:36:b6:cf:f5:68:6a:c1:db:
         1a:f1:40:80
-----BEGIN CERTIFICATE-----
MIIDNzCCAh+gAwIBAgIBAzANBgkqhkiG9w0BAQsFADAQMQ4wDAYDVQQDDAVKb25n
ZTAeFw0xOTA2MDcxNDMwMzFaFw0yOTA2MDQxNDMwMzFaMBoxGDAWBgNVBAMMD29w
ZW52cG5fY2xpZW50MjCCASIwDQYJKoZIhvcNAQEBBQADggEPADCCAQoCggEBAPFI
BrH8PriA3Qhp6ErzZrXq550oNguHbilJsJNEFImNiFNl1q1n+LqRZvh/fOvnwLQD
uycXSTL6oavxBZTDKoUO51ezbXBmXntGtCFS0dFDhuBO+pll0AZ3Njg+xCTl/RW8
q4mD3z/8kYYxson+tC39xNfY690fRlH2haUYD46UqQ0MwgfFiCasc2xGjtWleeRX
MJmY78RDwhpXv0O//yNeeWDJ6sYloUM6/nwSXwEalA+4CutDqjZSRo0ybnHcx6cT
v4lhhxUXGu/OzwSlP+avpELVGqJqajD1UAfqWYHHw6zN1MjBYKiuO9tzBNP5pfu/
bD+6Ks6lBt5XMZJ6lB8CAwEAAaOBkTCBjjAJBgNVHRMEAjAAMB0GA1UdDgQWBBQz
9ViEvkRmzRrIqegqLp6VCCb5vDBABgNVHSMEOTA3gBTCNc45oZaMg3vLMLvP+bTI
zN6ZGqEUpBIwEDEOMAwGA1UEAwwFSm9uZ2WCCQCjAolPr1vBODATBgNVHSUEDDAK
BggrBgEFBQcDAjALBgNVHQ8EBAMCB4AwDQYJKoZIhvcNAQELBQADggEBAK+EPhuX
MuIT0E4me5U5KU2AMO/T+0kbzY0VBXB5FMCGbIDPCEu2vmF8VwC1D3V9HEST/SsH
y+FQuk0lI3Apxa9Uwtbfxnj3R5SZDMtBEwI4kD5MEys/HcPb8r5Wpgmb5DIFsPn9
T15ERfvKvTBCST8S/ySnMsNNa+hSgxXa+ZbWqs891rR33TH1lyDFv0mIO/kqXgQc
qTwlyJ2JiRVtSDUojsUiPrQyY3PWXdeFAlHNy8KAIneEW0j+vcK/UUKFC++gnxy7
gTVfcChtqzb6nnTmMYrvMCnlRWj0zqObKhM84RPx+Z3Q1+w6EiU8+hTT0yFB3UY2
ts/1aGrB2xrxQIA=
-----END CERTIFICATE-----
