Certificate:
    Data:
        Version: 3 (0x2)
        Serial Number: 1 (0x1)
    Signature Algorithm: sha256WithRSAEncryption
        Issuer: CN=OpenVPNBla
        Validity
            Not Before: Jun  4 03:14:53 2019 GMT
            Not After : Jun  1 03:14:53 2029 GMT
        Subject: CN=openvpn_server
        Subject Public Key Info:
            Public Key Algorithm: rsaEncryption
                Public-Key: (2048 bit)
                Modulus:
                    00:c6:32:85:a3:b6:b5:9e:96:88:02:9e:ee:12:58:
                    c3:48:7e:9c:9a:5b:e5:15:e7:0f:73:c5:d3:68:a3:
                    fe:a7:d0:8a:36:99:77:ba:24:87:76:7a:6e:62:ae:
                    63:40:73:70:3b:ca:1f:f1:52:04:9f:6d:4e:40:31:
                    22:17:4b:7e:b3:7d:4b:a3:eb:ae:0c:b0:1b:ec:d0:
                    ad:99:4a:e8:29:a0:72:15:6a:ce:49:14:0e:65:c8:
                    de:7d:bb:eb:73:05:ce:a5:10:4d:c2:82:c7:c6:e1:
                    f1:12:7c:4a:ec:82:71:74:9b:27:00:f4:84:06:5f:
                    d5:9e:f9:09:1f:af:2a:b6:c0:aa:99:c9:eb:f8:ac:
                    19:d8:f4:f4:f1:b5:b1:83:08:7b:73:8e:19:f1:2d:
                    46:95:70:23:a3:53:5b:a0:6a:ca:f4:bc:41:c0:a6:
                    fb:cb:02:a4:32:5c:b7:91:ed:e0:88:04:58:35:46:
                    28:59:fe:df:f7:0b:3e:08:0b:86:9c:6b:5e:28:d7:
                    75:ed:2d:34:fa:2e:ad:dd:d8:fb:b8:98:3d:18:b0:
                    5c:86:e5:2c:74:44:0b:fc:eb:70:f0:e1:8a:8f:cf:
                    b7:e9:8f:c5:ab:60:1e:a8:3e:a6:0f:a6:4a:93:71:
                    7a:74:9f:03:eb:ca:44:8c:48:26:46:17:f9:66:9b:
                    ac:e1
                Exponent: 65537 (0x10001)
        X509v3 extensions:
            X509v3 Basic Constraints: 
                CA:FALSE
            X509v3 Subject Key Identifier: 
                8B:35:12:64:A8:B0:EA:6E:C8:06:17:83:7A:3D:5F:C0:AB:A3:64:97
            X509v3 Authority Key Identifier: 
                keyid:A4:9D:8C:50:B8:9F:ED:04:1F:C6:31:FE:15:B0:48:90:41:4F:EB:F7
                DirName:/CN=OpenVPNBla
                serial:ED:91:B9:8C:BB:92:4F:C2

            X509v3 Extended Key Usage: 
                TLS Web Server Authentication
            X509v3 Key Usage: 
                Digital Signature, Key Encipherment
    Signature Algorithm: sha256WithRSAEncryption
         36:c2:4c:6c:66:6c:25:cc:05:f4:59:2f:57:a1:63:ee:5f:12:
         c8:ef:9a:e3:e1:c7:93:2c:6f:e2:79:97:4e:c4:4a:ef:48:ec:
         18:2e:89:75:21:98:2c:bc:69:8a:68:fd:70:d6:78:04:e8:90:
         3c:4b:45:8f:61:14:e8:2a:c3:83:55:8e:76:7f:df:ff:ba:d7:
         ac:41:06:b2:a8:51:d8:70:3c:97:d0:bf:a3:fc:af:2a:23:f0:
         bd:5c:b8:20:37:26:97:16:4d:4e:0d:a8:e3:f1:ca:e8:b1:f7:
         31:04:3d:df:7f:e9:67:f1:9c:c1:72:b2:b2:31:e7:3e:8c:36:
         82:02:5b:db:64:83:0e:2a:20:6c:2f:d4:25:5b:da:0c:e5:dc:
         e6:8b:44:fc:44:b4:32:6f:db:5e:fb:6b:9d:43:e3:26:a6:0b:
         2d:52:e9:e0:a3:1f:59:f1:ba:f3:d0:e8:85:12:7d:a4:dd:86:
         a6:21:44:08:87:f6:73:52:3f:40:f5:ec:f8:a7:fd:d7:24:c5:
         b0:7e:28:ef:50:07:8b:8b:a2:f1:62:df:c5:04:4e:e6:2a:74:
         1c:69:43:34:00:fa:4a:db:ce:ba:47:3c:58:c7:6d:a5:ce:e3:
         cd:92:f0:6f:b7:c9:2a:35:11:7a:04:31:6d:59:71:90:70:c9:
         3b:f4:35:ca
-----BEGIN CERTIFICATE-----
MIIDQDCCAiigAwIBAgIBATANBgkqhkiG9w0BAQsFADAVMRMwEQYDVQQDDApPcGVu
VlBOQmxhMB4XDTE5MDYwNDAzMTQ1M1oXDTI5MDYwMTAzMTQ1M1owGTEXMBUGA1UE
AwwOb3BlbnZwbl9zZXJ2ZXIwggEiMA0GCSqGSIb3DQEBAQUAA4IBDwAwggEKAoIB
AQDGMoWjtrWelogCnu4SWMNIfpyaW+UV5w9zxdNoo/6n0Io2mXe6JId2em5irmNA
c3A7yh/xUgSfbU5AMSIXS36zfUuj664MsBvs0K2ZSugpoHIVas5JFA5lyN59u+tz
Bc6lEE3CgsfG4fESfErsgnF0mycA9IQGX9We+Qkfryq2wKqZyev4rBnY9PTxtbGD
CHtzjhnxLUaVcCOjU1ugasr0vEHApvvLAqQyXLeR7eCIBFg1RihZ/t/3Cz4IC4ac
a14o13XtLTT6Lq3d2Pu4mD0YsFyG5Sx0RAv863Dw4YqPz7fpj8WrYB6oPqYPpkqT
cXp0nwPrykSMSCZGF/lmm6zhAgMBAAGjgZYwgZMwCQYDVR0TBAIwADAdBgNVHQ4E
FgQUizUSZKiw6m7IBheDej1fwKujZJcwRQYDVR0jBD4wPIAUpJ2MULif7QQfxjH+
FbBIkEFP6/ehGaQXMBUxEzARBgNVBAMMCk9wZW5WUE5CbGGCCQDtkbmMu5JPwjAT
BgNVHSUEDDAKBggrBgEFBQcDATALBgNVHQ8EBAMCBaAwDQYJKoZIhvcNAQELBQAD
ggEBADbCTGxmbCXMBfRZL1ehY+5fEsjvmuPhx5Msb+J5l07ESu9I7BguiXUhmCy8
aYpo/XDWeATokDxLRY9hFOgqw4NVjnZ/3/+616xBBrKoUdhwPJfQv6P8ryoj8L1c
uCA3JpcWTU4NqOPxyuix9zEEPd9/6WfxnMFysrIx5z6MNoICW9tkgw4qIGwv1CVb
2gzl3OaLRPxEtDJv2177a51D4yamCy1S6eCjH1nxuvPQ6IUSfaTdhqYhRAiH9nNS
P0D17Pin/dckxbB+KO9QB4uLovFi38UETuYqdBxpQzQA+krbzrpHPFjHbaXO482S
8G+3ySo1EXoEMW1ZcZBwyTv0Nco=
-----END CERTIFICATE-----
