Certificate:
    Data:
        Version: 3 (0x2)
        Serial Number: 2 (0x2)
    Signature Algorithm: sha256WithRSAEncryption
        Issuer: CN=OpenVPNBla
        Validity
            Not Before: Jun  4 03:14:53 2019 GMT
            Not After : Jun  1 03:14:53 2029 GMT
        Subject: CN=openvpn_client1
        Subject Public Key Info:
            Public Key Algorithm: rsaEncryption
                Public-Key: (2048 bit)
                Modulus:
                    00:e9:98:2c:7c:74:7a:f4:1e:c6:57:e8:49:fb:04:
                    34:41:c5:db:c9:a1:22:04:d4:9c:ee:22:64:4e:1e:
                    15:20:5b:b1:3b:03:46:2f:36:c3:60:77:f9:73:8b:
                    b1:5b:55:a9:12:80:8c:14:29:f3:4a:50:bc:34:e2:
                    ff:41:90:a3:9d:98:e0:73:7b:4d:f5:64:c0:13:ee:
                    d8:1d:ab:c6:cf:75:32:a2:fc:75:e5:95:de:ef:c3:
                    57:72:5b:1d:c5:80:9a:0d:2e:1b:5c:f7:a9:cc:49:
                    c4:b5:f0:6c:f2:94:50:c9:9d:ed:33:87:62:99:cb:
                    d1:f1:cd:76:d5:da:44:63:ac:3b:6f:4a:40:a5:25:
                    d4:76:b7:65:62:56:41:ab:56:3c:87:5c:d1:72:af:
                    a5:c7:41:ea:30:9e:ca:7c:a8:6a:24:f6:73:db:c6:
                    ec:37:63:85:88:56:24:07:9a:39:e8:46:b5:0a:75:
                    43:1f:86:de:e2:a3:1d:68:08:fb:ea:b5:be:b2:21:
                    1c:2e:93:6a:31:88:0f:60:41:a4:aa:2d:b4:9d:13:
                    91:59:b3:cb:27:17:49:af:b4:7f:d8:ee:2f:a2:50:
                    b2:d8:63:cf:d7:fc:e9:8d:e1:52:0a:7a:1d:78:9e:
                    da:35:eb:e8:e7:3c:b1:3d:71:df:56:0b:5c:88:3e:
                    5e:99
                Exponent: 65537 (0x10001)
        X509v3 extensions:
            X509v3 Basic Constraints: 
                CA:FALSE
            X509v3 Subject Key Identifier: 
                A3:FF:9A:17:EC:78:02:BF:18:28:70:03:8F:92:38:EC:1E:65:DE:0E
            X509v3 Authority Key Identifier: 
                keyid:A4:9D:8C:50:B8:9F:ED:04:1F:C6:31:FE:15:B0:48:90:41:4F:EB:F7
                DirName:/CN=OpenVPNBla
                serial:ED:91:B9:8C:BB:92:4F:C2

            X509v3 Extended Key Usage: 
                TLS Web Client Authentication
            X509v3 Key Usage: 
                Digital Signature
    Signature Algorithm: sha256WithRSAEncryption
         6a:2a:69:c0:7f:4a:a3:f7:fb:76:17:7a:92:dc:4a:5f:e2:e1:
         58:63:e3:ce:57:cc:77:ea:3e:6c:3a:00:d6:d9:ae:38:77:cf:
         2a:0a:55:23:aa:31:52:4f:8c:4e:49:6c:ce:0b:4c:eb:98:5d:
         02:45:81:22:c9:7e:d8:65:90:49:10:ab:45:bb:97:19:e5:38:
         42:a9:94:46:36:63:c6:bb:64:a5:32:48:9c:1c:20:3f:a8:df:
         6a:8a:d8:9e:d1:d1:f9:1d:2e:9c:5f:ea:6d:0f:1f:18:8a:6b:
         e6:88:da:5f:c4:0f:c5:32:90:9f:c5:bf:9a:cb:b6:39:e0:33:
         65:68:84:37:00:e2:35:4e:b8:fb:00:f5:40:62:f8:21:54:99:
         90:c1:a0:f0:80:14:3a:a5:5b:fe:ab:72:a2:9f:34:45:c2:0f:
         75:84:73:84:ad:87:7a:c9:1b:f4:05:78:14:c7:9a:21:88:76:
         bb:4a:28:c8:6a:7d:c2:e9:11:21:b9:e7:97:96:ef:88:e6:70:
         09:58:22:2b:24:93:e2:c6:55:24:07:69:8d:16:c0:97:14:8b:
         17:85:72:76:8b:fe:4d:b9:fa:6b:ed:3d:4e:e3:97:4b:84:ca:
         26:a9:7a:dd:82:dd:bd:ec:fd:e5:ad:b5:af:54:7b:72:1e:52:
         da:f1:b0:1c
-----BEGIN CERTIFICATE-----
MIIDQTCCAimgAwIBAgIBAjANBgkqhkiG9w0BAQsFADAVMRMwEQYDVQQDDApPcGVu
VlBOQmxhMB4XDTE5MDYwNDAzMTQ1M1oXDTI5MDYwMTAzMTQ1M1owGjEYMBYGA1UE
AwwPb3BlbnZwbl9jbGllbnQxMIIBIjANBgkqhkiG9w0BAQEFAAOCAQ8AMIIBCgKC
AQEA6ZgsfHR69B7GV+hJ+wQ0QcXbyaEiBNSc7iJkTh4VIFuxOwNGLzbDYHf5c4ux
W1WpEoCMFCnzSlC8NOL/QZCjnZjgc3tN9WTAE+7YHavGz3Uyovx15ZXe78NXclsd
xYCaDS4bXPepzEnEtfBs8pRQyZ3tM4dimcvR8c121dpEY6w7b0pApSXUdrdlYlZB
q1Y8h1zRcq+lx0HqMJ7KfKhqJPZz28bsN2OFiFYkB5o56Ea1CnVDH4be4qMdaAj7
6rW+siEcLpNqMYgPYEGkqi20nRORWbPLJxdJr7R/2O4volCy2GPP1/zpjeFSCnod
eJ7aNevo5zyxPXHfVgtciD5emQIDAQABo4GWMIGTMAkGA1UdEwQCMAAwHQYDVR0O
BBYEFKP/mhfseAK/GChwA4+SOOweZd4OMEUGA1UdIwQ+MDyAFKSdjFC4n+0EH8Yx
/hWwSJBBT+v3oRmkFzAVMRMwEQYDVQQDDApPcGVuVlBOQmxhggkA7ZG5jLuST8Iw
EwYDVR0lBAwwCgYIKwYBBQUHAwIwCwYDVR0PBAQDAgeAMA0GCSqGSIb3DQEBCwUA
A4IBAQBqKmnAf0qj9/t2F3qS3Epf4uFYY+POV8x36j5sOgDW2a44d88qClUjqjFS
T4xOSWzOC0zrmF0CRYEiyX7YZZBJEKtFu5cZ5ThCqZRGNmPGu2SlMkicHCA/qN9q
itie0dH5HS6cX+ptDx8YimvmiNpfxA/FMpCfxb+ay7Y54DNlaIQ3AOI1Trj7APVA
YvghVJmQwaDwgBQ6pVv+q3KinzRFwg91hHOErYd6yRv0BXgUx5ohiHa7SijIan3C
6REhueeXlu+I5nAJWCIrJJPixlUkB2mNFsCXFIsXhXJ2i/5Nufpr7T1O45dLhMom
qXrdgt297P3lrbWvVHtyHlLa8bAc
-----END CERTIFICATE-----
