Certificate:
    Data:
        Version: 3 (0x2)
        Serial Number: 3 (0x3)
    Signature Algorithm: sha256WithRSAEncryption
        Issuer: CN=OpenVPNBla
        Validity
            Not Before: Jun  4 03:14:54 2019 GMT
            Not After : Jun  1 03:14:54 2029 GMT
        Subject: CN=openvpn_client2
        Subject Public Key Info:
            Public Key Algorithm: rsaEncryption
                Public-Key: (2048 bit)
                Modulus:
                    00:d8:ab:3b:04:c7:c8:8c:43:22:84:d8:20:9a:f7:
                    3d:df:ad:4c:f8:1a:e7:a1:3f:03:36:63:4f:2d:6a:
                    b5:f7:53:c5:53:41:af:63:6a:91:c9:e2:73:6a:4b:
                    00:18:55:70:84:6d:5f:1f:b1:b0:ab:ba:59:8b:45:
                    90:8a:e6:8f:00:8d:74:ba:11:44:7e:3e:80:90:7e:
                    28:3d:ca:38:ae:00:de:d8:66:34:c2:97:ed:21:f9:
                    9f:0f:4f:ea:ba:c2:9d:7b:1c:34:3a:c8:da:7a:1e:
                    ce:20:f2:7c:df:2c:72:aa:42:c7:20:a2:fa:f9:a8:
                    ac:14:96:0d:76:59:70:0e:60:fa:0b:4e:ff:74:e4:
                    90:da:9e:77:65:87:1b:2b:cd:1d:90:5f:df:10:c9:
                    98:a1:a5:07:39:a3:75:15:7f:f6:f6:5f:6a:38:6b:
                    28:8b:a5:7d:3d:70:31:a6:a2:69:64:90:89:de:f5:
                    a8:3b:39:d5:08:af:57:c6:b5:95:d6:bc:fa:35:64:
                    fd:06:27:3e:f0:1a:55:10:d0:63:7e:a7:e3:bc:c3:
                    a3:b6:45:b3:b7:1e:02:0f:d3:f8:05:68:ea:5f:c4:
                    6f:34:71:75:6a:6d:1b:c3:ea:d0:73:64:4d:1a:0a:
                    71:60:0f:5c:7e:1c:79:a3:e6:ab:82:17:13:5a:53:
                    cf:3f
                Exponent: 65537 (0x10001)
        X509v3 extensions:
            X509v3 Basic Constraints: 
                CA:FALSE
            X509v3 Subject Key Identifier: 
                1E:93:42:78:33:36:41:FF:B5:85:FF:18:8F:54:98:15:D2:B1:02:C3
            X509v3 Authority Key Identifier: 
                keyid:A4:9D:8C:50:B8:9F:ED:04:1F:C6:31:FE:15:B0:48:90:41:4F:EB:F7
                DirName:/CN=OpenVPNBla
                serial:ED:91:B9:8C:BB:92:4F:C2

            X509v3 Extended Key Usage: 
                TLS Web Client Authentication
            X509v3 Key Usage: 
                Digital Signature
    Signature Algorithm: sha256WithRSAEncryption
         6d:93:7e:ad:98:6a:bc:c3:c6:f0:a5:10:76:5c:32:fa:f4:f7:
         38:19:c4:bb:f2:77:f7:d3:3f:a9:3c:95:10:5d:ee:01:7e:24:
         35:d8:0d:86:a7:fb:50:81:41:ca:88:33:26:d0:6d:19:31:23:
         05:ed:3a:84:bf:52:26:f5:f0:fc:3f:8a:f7:70:94:eb:86:b8:
         3a:83:3f:83:15:7b:ed:ff:b8:c2:6c:53:8c:5b:94:3d:47:b2:
         a9:74:26:b3:a9:ed:77:e7:c3:cf:22:c8:2f:f2:4e:45:dc:92:
         7e:85:e9:4f:6f:0a:67:ee:b7:2d:b2:2e:c0:13:95:67:d9:ef:
         d4:89:4b:50:1c:e3:ff:2e:4c:cc:15:1a:a4:4b:96:97:47:83:
         46:b5:9d:ea:20:4d:95:25:fe:cd:44:2a:dc:38:9f:74:25:d4:
         fb:ba:ad:af:7c:46:bc:3c:e5:a9:96:fb:d1:ea:6b:80:c1:14:
         98:87:77:d5:87:32:b4:f6:e4:02:4f:90:be:f0:e9:bc:0a:38:
         61:15:7b:c5:3c:b4:7f:14:99:07:a4:5b:80:85:39:5a:44:ad:
         53:e7:4a:47:06:b3:41:1a:af:92:04:af:93:c0:0a:11:0f:0e:
         c6:fc:57:e3:34:9e:b7:17:60:7b:cd:c7:9c:70:d2:c3:f7:c9:
         9e:42:4b:74
-----BEGIN CERTIFICATE-----
MIIDQTCCAimgAwIBAgIBAzANBgkqhkiG9w0BAQsFADAVMRMwEQYDVQQDDApPcGVu
VlBOQmxhMB4XDTE5MDYwNDAzMTQ1NFoXDTI5MDYwMTAzMTQ1NFowGjEYMBYGA1UE
AwwPb3BlbnZwbl9jbGllbnQyMIIBIjANBgkqhkiG9w0BAQEFAAOCAQ8AMIIBCgKC
AQEA2Ks7BMfIjEMihNggmvc9361M+BrnoT8DNmNPLWq191PFU0GvY2qRyeJzaksA
GFVwhG1fH7Gwq7pZi0WQiuaPAI10uhFEfj6AkH4oPco4rgDe2GY0wpftIfmfD0/q
usKdexw0Osjaeh7OIPJ83yxyqkLHIKL6+aisFJYNdllwDmD6C07/dOSQ2p53ZYcb
K80dkF/fEMmYoaUHOaN1FX/29l9qOGsoi6V9PXAxpqJpZJCJ3vWoOznVCK9XxrWV
1rz6NWT9Bic+8BpVENBjfqfjvMOjtkWztx4CD9P4BWjqX8RvNHF1am0bw+rQc2RN
GgpxYA9cfhx5o+arghcTWlPPPwIDAQABo4GWMIGTMAkGA1UdEwQCMAAwHQYDVR0O
BBYEFB6TQngzNkH/tYX/GI9UmBXSsQLDMEUGA1UdIwQ+MDyAFKSdjFC4n+0EH8Yx
/hWwSJBBT+v3oRmkFzAVMRMwEQYDVQQDDApPcGVuVlBOQmxhggkA7ZG5jLuST8Iw
EwYDVR0lBAwwCgYIKwYBBQUHAwIwCwYDVR0PBAQDAgeAMA0GCSqGSIb3DQEBCwUA
A4IBAQBtk36tmGq8w8bwpRB2XDL69Pc4GcS78nf30z+pPJUQXe4BfiQ12A2Gp/tQ
gUHKiDMm0G0ZMSMF7TqEv1Im9fD8P4r3cJTrhrg6gz+DFXvt/7jCbFOMW5Q9R7Kp
dCazqe1358PPIsgv8k5F3JJ+helPbwpn7rctsi7AE5Vn2e/UiUtQHOP/LkzMFRqk
S5aXR4NGtZ3qIE2VJf7NRCrcOJ90JdT7uq2vfEa8POWplvvR6muAwRSYh3fVhzK0
9uQCT5C+8Om8CjhhFXvFPLR/FJkHpFuAhTlaRK1T50pHBrNBGq+SBK+TwAoRDw7G
/FfjNJ63F2B7zceccNLD98meQkt0
-----END CERTIFICATE-----
